; Function Attrs: mustprogress uwtable
define void @_ZN4cvc58internal6parser11SymbolTableC2Ev(ptr nocapture noundef nonnull writeonly align 8 dereferenceable(8) %this) unnamed_addr #3 align 2 personality ptr @__gxx_personality_v0 {
entry:
  %call = tail call noalias noundef nonnull dereferenceable(416) ptr @_Znwm(i64 noundef 416) #24
  invoke void @_ZN4cvc58internal6parser11SymbolTable14ImplementationC2Ev(ptr noundef nonnull align 8 dereferenceable(416) %call)
          to label %invoke.cont unwind label %lpad

invoke.cont:                                      ; preds = %entry
  store ptr %call, ptr %this, align 8
  ret void

lpad:                                             ; preds = %entry
  %0 = landingpad { ptr, i32 }
          cleanup
  tail call void @_ZdlPv(ptr noundef nonnull %call) #21
  resume { ptr, i32 } %0
}